target datalayout = "e-m:e-p270:32:32-p271:32:32-p272:64:64-i64:64-i128:128-f80:128-n8:16:32:64-S128"
target triple = "x86_64-pc-linux-gnu"

%struct._zend_executor_globals = type { %struct._zval_struct, %struct._zval_struct, [32 x ptr], ptr, ptr, %struct._zend_array, %struct._zend_array, ptr, i32, i8, %struct._zval_struct, i32, ptr, ptr, ptr, ptr, ptr, ptr, i64, ptr, ptr, i32, ptr, i32, i64, i32, i32, i32, i8, i8, %struct.zend_atomic_bool_s, %struct.zend_atomic_bool_s, ptr, i64, ptr, ptr, %struct._zend_array, %struct._zend_array, i32, i8, %struct._zval_struct, %struct._zval_struct, %struct._zend_stack, %struct._zend_stack, %struct._zend_stack, ptr, i32, i32, i64, ptr, ptr, ptr, %struct._zend_objects_store, %struct._zend_lazy_objects_store, ptr, ptr, ptr, [3 x %struct._zend_op], ptr, i8, i8, i64, i32, i32, ptr, [16 x %struct._HashTableIterator], ptr, %union._zend_function, %struct._zend_op, %struct._zend_array, i64, %struct.zend_get_gc_buffer, ptr, ptr, ptr, i64, i8, i32, ptr, ptr, i64, %struct._zend_call_stack, i64, i64, %struct._zend_strtod_state, [6 x ptr] }
%struct.zend_atomic_bool_s = type { i8 }
%struct._zval_struct = type { %union._zend_value, %union.anon, %union.anon.2 }
%union._zend_value = type { i64 }
%union.anon = type { i32 }
%union.anon.2 = type { i32 }
%struct._zend_stack = type { i32, i32, i32, ptr }
%struct._zend_objects_store = type { ptr, i32, i32, i32 }
%struct._zend_lazy_objects_store = type { %struct._zend_array }
%struct._HashTableIterator = type { ptr, i32, i32 }
%union._zend_function = type { %struct._zend_op_array }
%struct._zend_op_array = type { i8, [3 x i8], i32, ptr, ptr, ptr, i32, i32, ptr, ptr, ptr, ptr, i32, ptr, i32, i32, i32, ptr, ptr, ptr, ptr, ptr, i32, i32, ptr, ptr, ptr, i32, i32, i32, i32, ptr, ptr, [6 x ptr] }
%struct._zend_op = type { ptr, %union._znode_op, %union._znode_op, %union._znode_op, i32, i32, i8, i8, i8, i8 }
%union._znode_op = type { i32 }
%struct._zend_array = type { %struct._zend_refcounted_h, %union.anon.4, i32, %union.anon.6, i32, i32, i32, i32, i64, ptr }
%struct._zend_refcounted_h = type { i32, %union.anon.3 }
%union.anon.3 = type { i32 }
%union.anon.4 = type { i32 }
%union.anon.6 = type { ptr }
%struct.zend_get_gc_buffer = type { ptr, ptr, ptr }
%struct._zend_call_stack = type { ptr, i64 }
%struct._zend_strtod_state = type { [8 x ptr], ptr, ptr }
%struct._zend_strtod_bigint = type { ptr, i32, i32, i32, i32, [1 x i32] }

@executor_globals = external global %struct._zend_executor_globals, align 8
@.str.8 = private unnamed_addr constant [35 x i8] c"Balloc() failed to allocate memory\00", align 1

; Function Attrs: nounwind uwtable
define internal void @Bfree(ptr noundef %0) #0 {
  %2 = alloca ptr, align 8
  store ptr %0, ptr %2, align 8, !tbaa !11
  %3 = load ptr, ptr %2, align 8, !tbaa !11
  %4 = icmp ne ptr %3, null
  br i1 %4, label %5, label %28

5:                                                ; preds = %1
  %6 = load ptr, ptr %2, align 8, !tbaa !11
  %7 = getelementptr inbounds nuw %struct._zend_strtod_bigint, ptr %6, i32 0, i32 1
  %8 = load i32, ptr %7, align 8, !tbaa !63
  %9 = icmp sgt i32 %8, 7
  br i1 %9, label %10, label %12

10:                                               ; preds = %5
  %11 = load ptr, ptr %2, align 8, !tbaa !11
  call void @free(ptr noundef %11) #7
  br label %27

12:                                               ; preds = %5
  %13 = load ptr, ptr %2, align 8, !tbaa !11
  %14 = getelementptr inbounds nuw %struct._zend_strtod_bigint, ptr %13, i32 0, i32 1
  %15 = load i32, ptr %14, align 8, !tbaa !63
  %16 = sext i32 %15 to i64
  %17 = getelementptr inbounds [8 x ptr], ptr getelementptr inbounds nuw (%struct._zend_executor_globals, ptr @executor_globals, i32 0, i32 84), i64 0, i64 %16
  %18 = load ptr, ptr %17, align 8, !tbaa !11
  %19 = load ptr, ptr %2, align 8, !tbaa !11
  %20 = getelementptr inbounds nuw %struct._zend_strtod_bigint, ptr %19, i32 0, i32 0
  store ptr %18, ptr %20, align 8, !tbaa !13
  %21 = load ptr, ptr %2, align 8, !tbaa !11
  %22 = load ptr, ptr %2, align 8, !tbaa !11
  %23 = getelementptr inbounds nuw %struct._zend_strtod_bigint, ptr %22, i32 0, i32 1
  %24 = load i32, ptr %23, align 8, !tbaa !63
  %25 = sext i32 %24 to i64
  %26 = getelementptr inbounds [8 x ptr], ptr getelementptr inbounds nuw (%struct._zend_executor_globals, ptr @executor_globals, i32 0, i32 84), i64 0, i64 %25
  store ptr %21, ptr %26, align 8, !tbaa !11
  br label %27

27:                                               ; preds = %12, %10
  br label %28

28:                                               ; preds = %27, %1
  ret void
}

; Function Attrs: nounwind uwtable
define internal ptr @Balloc(i32 noundef %0) #0 {
  %2 = alloca i32, align 4
  %3 = alloca i32, align 4
  %4 = alloca ptr, align 8
  store i32 %0, ptr %2, align 4, !tbaa !4
  call void @llvm.lifetime.start.p0(i64 4, ptr %3) #7
  call void @llvm.lifetime.start.p0(i64 8, ptr %4) #7
  %5 = load i32, ptr %2, align 4, !tbaa !4
  %6 = icmp sle i32 %5, 7
  br i1 %6, label %7, label %20

7:                                                ; preds = %1
  %8 = load i32, ptr %2, align 4, !tbaa !4
  %9 = sext i32 %8 to i64
  %10 = getelementptr inbounds [8 x ptr], ptr getelementptr inbounds nuw (%struct._zend_executor_globals, ptr @executor_globals, i32 0, i32 84), i64 0, i64 %9
  %11 = load ptr, ptr %10, align 8, !tbaa !11
  store ptr %11, ptr %4, align 8, !tbaa !11
  %12 = icmp ne ptr %11, null
  br i1 %12, label %13, label %20

13:                                               ; preds = %7
  %14 = load ptr, ptr %4, align 8, !tbaa !11
  %15 = getelementptr inbounds nuw %struct._zend_strtod_bigint, ptr %14, i32 0, i32 0
  %16 = load ptr, ptr %15, align 8, !tbaa !13
  %17 = load i32, ptr %2, align 4, !tbaa !4
  %18 = sext i32 %17 to i64
  %19 = getelementptr inbounds [8 x ptr], ptr getelementptr inbounds nuw (%struct._zend_executor_globals, ptr @executor_globals, i32 0, i32 84), i64 0, i64 %18
  store ptr %16, ptr %19, align 8, !tbaa !11
  br label %39

20:                                               ; preds = %7, %1
  %21 = load i32, ptr %2, align 4, !tbaa !4
  %22 = shl i32 1, %21
  store i32 %22, ptr %3, align 4, !tbaa !4
  %23 = load i32, ptr %3, align 4, !tbaa !4
  %24 = sub nsw i32 %23, 1
  %25 = sext i32 %24 to i64
  %26 = mul i64 %25, 4
  %27 = add i64 32, %26
  %28 = call noalias ptr @malloc(i64 noundef %27) #8
  store ptr %28, ptr %4, align 8, !tbaa !11
  %29 = load ptr, ptr %4, align 8, !tbaa !11
  %30 = icmp ne ptr %29, null
  br i1 %30, label %32, label %31

31:                                               ; preds = %20
  call void (i32, ptr, ...) @zend_error_noreturn(i32 noundef 1, ptr noundef @.str.8) #9
  unreachable

32:                                               ; preds = %20
  %33 = load i32, ptr %2, align 4, !tbaa !4
  %34 = load ptr, ptr %4, align 8, !tbaa !11
  %35 = getelementptr inbounds nuw %struct._zend_strtod_bigint, ptr %34, i32 0, i32 1
  store i32 %33, ptr %35, align 8, !tbaa !63
  %36 = load i32, ptr %3, align 4, !tbaa !4
  %37 = load ptr, ptr %4, align 8, !tbaa !11
  %38 = getelementptr inbounds nuw %struct._zend_strtod_bigint, ptr %37, i32 0, i32 2
  store i32 %36, ptr %38, align 4, !tbaa !67
  br label %39

39:                                               ; preds = %32, %13
  %40 = load ptr, ptr %4, align 8, !tbaa !11
  %41 = getelementptr inbounds nuw %struct._zend_strtod_bigint, ptr %40, i32 0, i32 4
  store i32 0, ptr %41, align 4, !tbaa !64
  %42 = load ptr, ptr %4, align 8, !tbaa !11
  %43 = getelementptr inbounds nuw %struct._zend_strtod_bigint, ptr %42, i32 0, i32 3
  store i32 0, ptr %43, align 8, !tbaa !65
  %44 = load ptr, ptr %4, align 8, !tbaa !11
  call void @llvm.lifetime.end.p0(i64 8, ptr %4) #7
  call void @llvm.lifetime.end.p0(i64 4, ptr %3) #7
  ret ptr %44
}

; Function Attrs: nounwind uwtable
define internal ptr @multadd(ptr noundef %0, i32 noundef %1, i32 noundef %2) #0 {
  %4 = alloca ptr, align 8
  %5 = alloca i32, align 4
  %6 = alloca i32, align 4
  %7 = alloca i32, align 4
  %8 = alloca i32, align 4
  %9 = alloca ptr, align 8
  %10 = alloca i64, align 8
  %11 = alloca i64, align 8
  %12 = alloca ptr, align 8
  store ptr %0, ptr %4, align 8, !tbaa !11
  store i32 %1, ptr %5, align 4, !tbaa !4
  store i32 %2, ptr %6, align 4, !tbaa !4
  call void @llvm.lifetime.start.p0(i64 4, ptr %7) #7
  call void @llvm.lifetime.start.p0(i64 4, ptr %8) #7
  call void @llvm.lifetime.start.p0(i64 8, ptr %9) #7
  call void @llvm.lifetime.start.p0(i64 8, ptr %10) #7
  call void @llvm.lifetime.start.p0(i64 8, ptr %11) #7
  call void @llvm.lifetime.start.p0(i64 8, ptr %12) #7
  %13 = load ptr, ptr %4, align 8, !tbaa !11
  %14 = getelementptr inbounds nuw %struct._zend_strtod_bigint, ptr %13, i32 0, i32 4
  %15 = load i32, ptr %14, align 4, !tbaa !64
  store i32 %15, ptr %8, align 4, !tbaa !4
  %16 = load ptr, ptr %4, align 8, !tbaa !11
  %17 = getelementptr inbounds nuw %struct._zend_strtod_bigint, ptr %16, i32 0, i32 5
  %18 = getelementptr inbounds [1 x i32], ptr %17, i64 0, i64 0
  store ptr %18, ptr %9, align 8, !tbaa !69
  store i32 0, ptr %7, align 4, !tbaa !4
  %19 = load i32, ptr %6, align 4, !tbaa !4
  %20 = sext i32 %19 to i64
  store i64 %20, ptr %10, align 8, !tbaa !71
  br label %21

21:                                               ; preds = %37, %3
  %22 = load ptr, ptr %9, align 8, !tbaa !69
  %23 = load i32, ptr %22, align 4, !tbaa !4
  %24 = zext i32 %23 to i64
  %25 = load i32, ptr %5, align 4, !tbaa !4
  %26 = sext i32 %25 to i64
  %27 = mul i64 %24, %26
  %28 = load i64, ptr %10, align 8, !tbaa !71
  %29 = add i64 %27, %28
  store i64 %29, ptr %11, align 8, !tbaa !71
  %30 = load i64, ptr %11, align 8, !tbaa !71
  %31 = lshr i64 %30, 32
  store i64 %31, ptr %10, align 8, !tbaa !71
  %32 = load i64, ptr %11, align 8, !tbaa !71
  %33 = and i64 %32, 4294967295
  %34 = trunc i64 %33 to i32
  %35 = load ptr, ptr %9, align 8, !tbaa !69
  %36 = getelementptr inbounds nuw i32, ptr %35, i32 1
  store ptr %36, ptr %9, align 8, !tbaa !69
  store i32 %34, ptr %35, align 4, !tbaa !4
  br label %37

37:                                               ; preds = %21
  %38 = load i32, ptr %7, align 4, !tbaa !4
  %39 = add nsw i32 %38, 1
  store i32 %39, ptr %7, align 4, !tbaa !4
  %40 = load i32, ptr %8, align 4, !tbaa !4
  %41 = icmp slt i32 %39, %40
  br i1 %41, label %21, label %42

42:                                               ; preds = %37
  %43 = load i64, ptr %10, align 8, !tbaa !71
  %44 = icmp ne i64 %43, 0
  br i1 %44, label %45, label %81

45:                                               ; preds = %42
  %46 = load i32, ptr %8, align 4, !tbaa !4
  %47 = load ptr, ptr %4, align 8, !tbaa !11
  %48 = getelementptr inbounds nuw %struct._zend_strtod_bigint, ptr %47, i32 0, i32 2
  %49 = load i32, ptr %48, align 4, !tbaa !67
  %50 = icmp sge i32 %46, %49
  br i1 %50, label %51, label %69

51:                                               ; preds = %45
  %52 = load ptr, ptr %4, align 8, !tbaa !11
  %53 = getelementptr inbounds nuw %struct._zend_strtod_bigint, ptr %52, i32 0, i32 1
  %54 = load i32, ptr %53, align 8, !tbaa !63
  %55 = add nsw i32 %54, 1
  %56 = call ptr @Balloc(i32 noundef %55)
  store ptr %56, ptr %12, align 8, !tbaa !11
  %57 = load ptr, ptr %12, align 8, !tbaa !11
  %58 = getelementptr inbounds nuw %struct._zend_strtod_bigint, ptr %57, i32 0, i32 3
  %59 = load ptr, ptr %4, align 8, !tbaa !11
  %60 = getelementptr inbounds nuw %struct._zend_strtod_bigint, ptr %59, i32 0, i32 3
  %61 = load ptr, ptr %4, align 8, !tbaa !11
  %62 = getelementptr inbounds nuw %struct._zend_strtod_bigint, ptr %61, i32 0, i32 4
  %63 = load i32, ptr %62, align 4, !tbaa !64
  %64 = sext i32 %63 to i64
  %65 = mul i64 %64, 4
  %66 = add i64 %65, 8
  call void @llvm.memcpy.p0.p0.i64(ptr align 8 %58, ptr align 8 %60, i64 %66, i1 false)
  %67 = load ptr, ptr %4, align 8, !tbaa !11
  call void @Bfree(ptr noundef %67)
  %68 = load ptr, ptr %12, align 8, !tbaa !11
  store ptr %68, ptr %4, align 8, !tbaa !11
  br label %69

69:                                               ; preds = %51, %45
  %70 = load i64, ptr %10, align 8, !tbaa !71
  %71 = trunc i64 %70 to i32
  %72 = load ptr, ptr %4, align 8, !tbaa !11
  %73 = getelementptr inbounds nuw %struct._zend_strtod_bigint, ptr %72, i32 0, i32 5
  %74 = load i32, ptr %8, align 4, !tbaa !4
  %75 = add nsw i32 %74, 1
  store i32 %75, ptr %8, align 4, !tbaa !4
  %76 = sext i32 %74 to i64
  %77 = getelementptr inbounds [1 x i32], ptr %73, i64 0, i64 %76
  store i32 %71, ptr %77, align 4, !tbaa !4
  %78 = load i32, ptr %8, align 4, !tbaa !4
  %79 = load ptr, ptr %4, align 8, !tbaa !11
  %80 = getelementptr inbounds nuw %struct._zend_strtod_bigint, ptr %79, i32 0, i32 4
  store i32 %78, ptr %80, align 4, !tbaa !64
  br label %81

81:                                               ; preds = %69, %42
  %82 = load ptr, ptr %4, align 8, !tbaa !11
  call void @llvm.lifetime.end.p0(i64 8, ptr %12) #7
  call void @llvm.lifetime.end.p0(i64 8, ptr %11) #7
  call void @llvm.lifetime.end.p0(i64 8, ptr %10) #7
  call void @llvm.lifetime.end.p0(i64 8, ptr %9) #7
  call void @llvm.lifetime.end.p0(i64 4, ptr %8) #7
  call void @llvm.lifetime.end.p0(i64 4, ptr %7) #7
  ret ptr %82
}