; Function Attrs: nounwind uwtable
define internal fastcc ptr @multadd(ptr noundef %0, i32 noundef %1, i32 noundef range(i32 -176, 80) %2) unnamed_addr #0 {
  %4 = getelementptr inbounds nuw i8, ptr %0, i64 20
  %5 = load i32, ptr %4, align 4, !tbaa !52
  %6 = getelementptr inbounds nuw i8, ptr %0, i64 24
  %7 = sext i32 %2 to i64
  %8 = sext i32 %1 to i64
  %smax = tail call i32 @llvm.smax.i32(i32 %5, i32 1)
  br label %9

9:                                                ; preds = %9, %3
  %.027 = phi ptr [ %6, %3 ], [ %16, %9 ]
  %.026 = phi i64 [ %7, %3 ], [ %14, %9 ]
  %.025 = phi i32 [ 0, %3 ], [ %17, %9 ]
  %10 = load i32, ptr %.027, align 4, !tbaa !51
  %11 = zext i32 %10 to i64
  %12 = mul nsw i64 %11, %8
  %13 = add nsw i64 %12, %.026
  %14 = lshr i64 %13, 32
  %15 = trunc i64 %13 to i32
  %16 = getelementptr inbounds nuw i8, ptr %.027, i64 4
  store i32 %15, ptr %.027, align 4, !tbaa !51
  %17 = add nuw nsw i32 %.025, 1
  %exitcond.not = icmp eq i32 %17, %smax
  br i1 %exitcond.not, label %18, label %9

18:                                               ; preds = %9
  %.not = icmp ult i64 %13, 4294967296
  br i1 %.not, label %65, label %19

19:                                               ; preds = %18
  %20 = getelementptr inbounds nuw i8, ptr %0, i64 12
  %21 = load i32, ptr %20, align 4, !tbaa !49
  %.not30 = icmp slt i32 %5, %21
  br i1 %.not30, label %Bfree.exit, label %22

22:                                               ; preds = %19
  %23 = getelementptr inbounds nuw i8, ptr %0, i64 8
  %24 = load i32, ptr %23, align 8, !tbaa !48
  %25 = add nsw i32 %24, 1
  %26 = icmp slt i32 %24, 7
  br i1 %26, label %27, label %33

27:                                               ; preds = %22
  %28 = sext i32 %25 to i64
  %29 = getelementptr inbounds [8 x ptr], ptr getelementptr inbounds nuw (i8, ptr @executor_globals, i64 1856), i64 0, i64 %28
  %30 = load ptr, ptr %29, align 8, !tbaa !4
  %.not.i = icmp eq ptr %30, null
  br i1 %.not.i, label %33, label %31

31:                                               ; preds = %27
  %32 = load ptr, ptr %30, align 8, !tbaa !9
  store ptr %32, ptr %29, align 8, !tbaa !4
  br label %44

33:                                               ; preds = %27, %22
  %34 = shl nuw i32 1, %25
  %35 = add nsw i32 %34, -1
  %36 = zext nneg i32 %35 to i64
  %37 = shl nuw nsw i64 %36, 2
  %38 = add nuw nsw i64 %37, 32
  %39 = tail call noalias ptr @malloc(i64 noundef %38) #14
  %.not16.i = icmp eq ptr %39, null
  br i1 %.not16.i, label %40, label %41

40:                                               ; preds = %33
  tail call void (i32, ptr, ...) @zend_error_noreturn(i32 noundef 1, ptr noundef nonnull @.str.8) #15
  unreachable

41:                                               ; preds = %33
  %42 = getelementptr inbounds nuw i8, ptr %39, i64 8
  store i32 %25, ptr %42, align 8, !tbaa !48
  %43 = getelementptr inbounds nuw i8, ptr %39, i64 12
  store i32 %34, ptr %43, align 4, !tbaa !49
  br label %44

44:                                               ; preds = %41, %31
  %.0.i = phi ptr [ %30, %31 ], [ %39, %41 ]
  %45 = getelementptr inbounds nuw i8, ptr %.0.i, i64 20
  store i32 0, ptr %45, align 4, !tbaa !52
  %46 = getelementptr inbounds nuw i8, ptr %.0.i, i64 16
  store i32 0, ptr %46, align 8, !tbaa !50
  %47 = getelementptr inbounds nuw i8, ptr %0, i64 16
  %48 = load i32, ptr %4, align 4, !tbaa !52
  %49 = sext i32 %48 to i64
  %50 = shl nsw i64 %49, 2
  %51 = add nsw i64 %50, 8
  tail call void @llvm.memcpy.p0.p0.i64(ptr nonnull align 8 %46, ptr nonnull align 8 %47, i64 %51, i1 false)
  %52 = load i32, ptr %23, align 8, !tbaa !48
  %53 = icmp sgt i32 %52, 7
  br i1 %53, label %54, label %55

54:                                               ; preds = %44
  tail call void @free(ptr noundef nonnull %0) #13
  br label %Bfree.exit

55:                                               ; preds = %44
  %56 = sext i32 %52 to i64
  %57 = getelementptr inbounds [8 x ptr], ptr getelementptr inbounds nuw (i8, ptr @executor_globals, i64 1856), i64 0, i64 %56
  %58 = load ptr, ptr %57, align 8, !tbaa !4
  store ptr %58, ptr %0, align 8, !tbaa !9
  store ptr %0, ptr %57, align 8, !tbaa !4
  br label %Bfree.exit

Bfree.exit:                                       ; preds = %55, %54, %19
  %.1 = phi ptr [ %0, %19 ], [ %.0.i, %54 ], [ %.0.i, %55 ]
  %59 = trunc nuw i64 %14 to i32
  %60 = getelementptr inbounds nuw i8, ptr %.1, i64 24
  %61 = add nsw i32 %5, 1
  %62 = sext i32 %5 to i64
  %63 = getelementptr inbounds [1 x i32], ptr %60, i64 0, i64 %62
  store i32 %59, ptr %63, align 4, !tbaa !51
  %64 = getelementptr inbounds nuw i8, ptr %.1, i64 20
  store i32 %61, ptr %64, align 4, !tbaa !52
  br label %65

65:                                               ; preds = %Bfree.exit, %18
  %.0 = phi ptr [ %.1, %Bfree.exit ], [ %0, %18 ]
  ret ptr %.0
}